                        .module main.c
                        .area text(rom, con, rel)
 0000                   .dbfile ./main.c
                        .area data(ram, con, rel)
 0000                   .dbfile ./main.c
 0000           _timeT::
 0000                   .blkb 2
                        .area idata(rom,lit)
 0000 0000              .word 0
                        .area data(ram, con, rel)
 0002                   .dbfile ./main.c
 0002                   .dbfile Z:\Robo\Robor7\ROBOTT~1\ROBOTT~1\main.c
 0002                   .dbsym e timeT _timeT I
 0002           _timeT2::
 0002                   .blkb 2
                        .area idata(rom,lit)
 0002 0000              .word 0
                        .area data(ram, con, rel)
 0004                   .dbfile Z:\Robo\Robor7\ROBOTT~1\ROBOTT~1\main.c
 0004                   .dbsym e timeT2 _timeT2 I
 0004           _timeForward::
 0004                   .blkb 2
                        .area idata(rom,lit)
 0004 0096              .word 150
                        .area data(ram, con, rel)
 0006                   .dbfile Z:\Robo\Robor7\ROBOTT~1\ROBOTT~1\main.c
 0006                   .dbsym e timeForward _timeForward I
 0006           _turnTime::
 0006                   .blkb 2
                        .area idata(rom,lit)
 0006 004B              .word 75
                        .area data(ram, con, rel)
 0008                   .dbfile Z:\Robo\Robor7\ROBOTT~1\ROBOTT~1\main.c
 0008                   .dbsym e turnTime _turnTime I
 0008           _timeRobotWidth::
 0008                   .blkb 2
                        .area idata(rom,lit)
 0008 000F              .word 15
                        .area data(ram, con, rel)
 000A                   .dbfile Z:\Robo\Robor7\ROBOTT~1\ROBOTT~1\main.c
 000A                   .dbsym e timeRobotWidth _timeRobotWidth I
                        .area text(rom, con, rel)
 0000                   .dbfile Z:\Robo\Robor7\ROBOTT~1\ROBOTT~1\main.c
 0000                   .dbfunc e main _main fV
 0000           ;           turn -> X+14
 0000           ;         buffer -> X+4
 0000           ;      ultraData -> X+2
 0000           ;              i -> X+0
 0000           _main::
 0000                   .dbline -1
 0000 10                push X
 0001 4F                mov X,SP
 0002 3810              add SP,16
 0004                   .dbline 24
 0004           ; //----------------------------------------------------------------------------
 0004           ; // Robotti Projekti
 0004           ; // Robor7 @ 2014
 0004           ; // Kasper Kiiskinen, Henri Sinokki, Eero Holopainen, Mikko Liira, Kari Lampi
 0004           ; //----------------------------------------------------------------------------
 0004           ; 
 0004           ; #include <m8c.h>        // part specific constants and macros
 0004           ; #include "PSoCAPI.h"    // PSoC API definitions for all User Modules
 0004           ; #include<stdio.h>
 0004           ; #include<stdlib.h>
 0004           ; 
 0004           ; //Omat header filet
 0004           ; #include "MotorControl.h"
 0004           ; #include "UltraControl.h"
 0004           ; //#include "GyroControl.h"
 0004           ; 
 0004           ; int timeT = 0, timeT2 = 0; //kello
 0004           ; int timeForward = 150; //.... 4m täydellä vauhdilla 3.9s
 0004           ; int turnTime = 75;       //.... 90 asteen käännökseen meneväaika
 0004           ; int timeRobotWidth = 15; //.... Robotin leveyteen menevä aika ?
 0004           ; 
 0004           ; //Main Method
 0004           ; void main(void)
 0004           ; {
 0004                   .dbline 27
 0004           ;       //Määrittelyt
 0004           ;       char buffer[10];
 0004           ;       volatile int i = 0;
 0004 560100            mov [X+1],0
 0007 560000            mov [X+0],0
 000A                   .dbline 28
 000A           ;       int turn = 0;
 000A 560F00            mov [X+15],0
 000D 560E00            mov [X+14],0
 0010                   .dbline 29
 0010           ;       int ultraData = 0; //Data from ultrasonic sensor
 0010 560300            mov [X+3],0
 0013 560200            mov [X+2],0
 0016                   .dbline 34
 0016           ;       
 0016           ;       //Init**************************
 0016           ;       
 0016           ;       //Enables Global Interrupts
 0016           ;       M8C_EnableGInt; 
 0016 7101                      or  F, 01h
 0018           
 0018                   .dbline 37
 0018           ;               
 0018           ;       //Start LCD
 0018           ;       LCD_Start();
 0018 10                push X
 0019 7C0000            xcall _LCD_Start
 001C                   .dbline 40
 001C           ;       
 001C           ;       //InitializeTimer
 001C           ;       Timer8_Start();
 001C 7C0000            xcall _Timer8_Start
 001F                   .dbline 41
 001F           ;       Timer8_EnableInt();
 001F 7C0000            xcall _Timer8_EnableInt
 0022 20                pop X
 0023                   .dbline 44
 0023           ;               
 0023           ;       //Start Motor PWMs
 0023           ;       InitPWM();
 0023 7C0000            xcall _InitPWM
 0026                   .dbline 47
 0026           ;       
 0026           ;       //Init PGA and ADCIN for Ultrasonic
 0026           ;       InitUA();
 0026 7C0000            xcall _InitUA
 0029 8118              xjmp L3
 002B           L2:
 002B                   .dbline 53
 002B           ;       
 002B           ;       
 002B           ;       //MainLoop**********
 002B           ;       //***********************
 002B           ;       while(1)
 002B           ;       {
 002B                   .dbline 55
 002B           ;               //NEW STUFF
 002B           ;               if (timeT2 <= 1)
 002B 5001              mov A,1
 002D 1203              sub A,[_timeT2+1]
 002F 5102              mov A,[_timeT2]
 0031 3180              xor A,-128
 0033 5300              mov [__rX],A
 0035 5080              mov A,(0 ^ 0x80)
 0037 1A00              sbb A,[__rX]
 0039 C006              jc L5
 003B           X1:
 003B                   .dbline 57
 003B           ;               {
 003B           ;                       UATrig_Data_ADDR |= UATrig_MASK;
 003B                   .dbline 57
 003B 430040            or REG[0],64
 003E                   .dbline 58
 003E           ;               }
 003E 8004              xjmp L6
 0040           L5:
 0040                   .dbline 60
 0040           ;               else    
 0040           ;                       UATrig_Data_ADDR &= 0x00;
 0040 620000            mov REG[0],0
 0043           L6:
 0043                   .dbline 63
 0043           ;               
 0043           ;               //60ms again
 0043           ;               if (timeT2 >= 6)
 0043 5103              mov A,[_timeT2+1]
 0045 1106              sub A,6
 0047 5102              mov A,[_timeT2]
 0049 3180              xor A,-128
 004B 1980              sbb A,(0 ^ 0x80)
 004D C007              jc L7
 004F           X2:
 004F                   .dbline 65
 004F           ;               {
 004F           ;                       timeT2 = 0;
 004F                   .dbline 65
 004F 550300            mov [_timeT2+1],0
 0052 550200            mov [_timeT2],0
 0055                   .dbline 66
 0055           ;               }
 0055           L7:
 0055                   .dbline 69
 0055           ;                       
 0055           ;               //Gets the data
 0055           ;               ultraData = getDataUA();
 0055 7C0000            xcall _getDataUA
 0058 5100              mov A,[__r1]
 005A 5403              mov [X+3],A
 005C 5100              mov A,[__r0]
 005E 5402              mov [X+2],A
 0060                   .dbline 76
 0060           ;               
 0060           ;               //END
 0060           ;                       
 0060           ;               
 0060           ;               
 0060           ;               //Spiraali
 0060           ;               if(i < 3)
 0060 5201              mov A,[X+1]
 0062 1103              sub A,3
 0064 5200              mov A,[X+0]
 0066 3180              xor A,-128
 0068 1980              sbb A,(0 ^ 0x80)
 006A D045              jnc L9
 006C           X3:
 006C                   .dbline 78
 006C           ;               {
 006C           ;                       if(turn == 0)
 006C                   .dbline 78
 006C 3D0E00            cmp [X+14],0
 006F B013              jnz L11
 0071 3D0F00            cmp [X+15],0
 0074 B00E              jnz L11
 0076           X4:
 0076                   .dbline 79
 0076           ;                               MoveForward(FULL_SPEED);
 0076 5000              mov A,0
 0078 08                push A
 0079 50C7              mov A,-57
 007B 08                push A
 007C 7C0000            xcall _MoveForward
 007F 38FE              add SP,-2
 0081 8048              xjmp L10
 0083           L11:
 0083                   .dbline 81
 0083           ;                       else 
 0083           ;                       {
 0083                   .dbline 82
 0083           ;                               if(timeT <= turnTime) //if(gyroKulma < 90)
 0083 5107              mov A,[_turnTime+1]
 0085 1201              sub A,[_timeT+1]
 0087 5100              mov A,[_timeT]
 0089 3180              xor A,-128
 008B 5300              mov [__rX],A
 008D 5106              mov A,[_turnTime]
 008F 3180              xor A,-128
 0091 1A00              sbb A,[__rX]
 0093 C00E              jc L13
 0095           X5:
 0095                   .dbline 84
 0095           ;                               {
 0095           ;                                       TurnLeft(FULL_SPEED);
 0095                   .dbline 84
 0095 5000              mov A,0
 0097 08                push A
 0098 50C7              mov A,-57
 009A 08                push A
 009B 7C0000            xcall _TurnLeft
 009E 38FE              add SP,-2
 00A0                   .dbline 85
 00A0           ;                               }
 00A0 8029              xjmp L10
 00A2           L13:
 00A2                   .dbline 87
 00A2           ;                               else
 00A2           ;                               { 
 00A2                   .dbline 88
 00A2           ;                                       turn = 0;
 00A2 560F00            mov [X+15],0
 00A5 560E00            mov [X+14],0
 00A8                   .dbline 89
 00A8           ;                                       timeT = 0;
 00A8 550100            mov [_timeT+1],0
 00AB 550000            mov [_timeT],0
 00AE                   .dbline 90
 00AE           ;                               }
 00AE                   .dbline 91
 00AE           ;                       }
 00AE                   .dbline 92
 00AE           ;               }
 00AE 801B              xjmp L10
 00B0           L9:
 00B0                   .dbline 93
 00B0           ;               else if(i < 5) 
 00B0 5201              mov A,[X+1]
 00B2 1105              sub A,5
 00B4 5200              mov A,[X+0]
 00B6 3180              xor A,-128
 00B8 1980              sbb A,(0 ^ 0x80)
 00BA D00F              jnc L15
 00BC           X6:
 00BC                   .dbline 95
 00BC           ;               {
 00BC           ;                       i = 0;
 00BC                   .dbline 95
 00BC 560100            mov [X+1],0
 00BF 560000            mov [X+0],0
 00C2                   .dbline 96
 00C2           ;                       timeForward -= timeRobotWidth;
 00C2 5109              mov A,[_timeRobotWidth+1]
 00C4 1405              sub [_timeForward+1],A
 00C6 5108              mov A,[_timeRobotWidth]
 00C8 1C04              sbb [_timeForward],A
 00CA                   .dbline 97
 00CA           ;               }
 00CA           L15:
 00CA           L10:
 00CA                   .dbline 100
 00CA           ;               
 00CA           ;               //Kokokierros on menty
 00CA           ;               if(timeForward <= 0)
 00CA 5000              mov A,0
 00CC 1205              sub A,[_timeForward+1]
 00CE 5104              mov A,[_timeForward]
 00D0 3180              xor A,-128
 00D2 5300              mov [__rX],A
 00D4 5080              mov A,(0 ^ 0x80)
 00D6 1A00              sbb A,[__rX]
 00D8 C010              jc L17
 00DA           X7:
 00DA                   .dbline 102
 00DA           ;               {
 00DA           ;                       i = 10;
 00DA                   .dbline 102
 00DA 56010A            mov [X+1],10
 00DD 560000            mov [X+0],0
 00E0                   .dbline 103
 00E0           ;                       timeForward = 0;
 00E0 550500            mov [_timeForward+1],0
 00E3 550400            mov [_timeForward],0
 00E6                   .dbline 104
 00E6           ;                       Stop();
 00E6 7C0000            xcall _Stop
 00E9                   .dbline 105
 00E9           ;               }
 00E9           L17:
 00E9                   .dbline 144
 00E9           ;               //End Spiraali
 00E9           ;               
 00E9           ;               
 00E9           ;               //Scan
 00E9           ;               /*
 00E9           ;                       if(i == 10)
 00E9           ;                       {
 00E9           ;                               Skannaa keiloja.
 00E9           ;                               while(kulma >= 360)
 00E9           ;                               {
 00E9           ;                                       WaitForScan?
 00E9           ;                                       If(output => 0) 
 00E9           ;                                               MoveForward(199);
 00E9           ;                                       else
 00E9           ;                                               TurnLeft(199); kulma += 10;
 00E9           ;                               }
 00E9           ;               
 00E9           ;                               Jos ei löydy i = 20;
 00E9           ;                       }
 00E9           ;               */
 00E9           ;               
 00E9           ;               /*
 00E9           ;               if (timeT >= timeForward && turn == 0)
 00E9           ;               {
 00E9           ;                       i++;
 00E9           ;                       turn = 1;
 00E9           ;                       timeT = 0;
 00E9           ;                       
 00E9           ;                       //WRITE TO LCD
 00E9           ;                       itoa(buffer,timeForward,10);
 00E9           ;                       LCD_Position(0,5);
 00E9           ;                       LCD_PrString(buffer);
 00E9           ;                       
 00E9           ;                       itoa(buffer,i,10);
 00E9           ;                       LCD_Position(0,0);
 00E9           ;                       LCD_PrString(buffer);
 00E9           ;               }*/
 00E9           ;       
 00E9           ;               if(timeT >= 6)
 00E9 5101              mov A,[_timeT+1]
 00EB 1106              sub A,6
 00ED 5100              mov A,[_timeT]
 00EF 3180              xor A,-128
 00F1 1980              sbb A,(0 ^ 0x80)
 00F3 C04E              jc L19
 00F5           X8:
 00F5                   .dbline 146
 00F5           ;               {
 00F5           ;                       itoa(buffer,ultraData,10);
 00F5                   .dbline 146
 00F5 5000              mov A,0
 00F7 08                push A
 00F8 500A              mov A,10
 00FA 08                push A
 00FB 5202              mov A,[X+2]
 00FD 08                push A
 00FE 5203              mov A,[X+3]
 0100 08                push A
 0101 5A00              mov [__r1],X
 0103 060004            add [__r1],4
 0106 5100              mov A,[__r0]
 0108 08                push A
 0109 5100              mov A,[__r1]
 010B 08                push A
 010C 7C0000            xcall _itoa
 010F 38FA              add SP,-6
 0111                   .dbline 147
 0111           ;                       LCD_Position(0,0);
 0111 10                push X
 0112 5000              mov A,0
 0114 5700              mov X,0
 0116 7C0000            xcall _LCD_Position
 0119                   .dbline 148
 0119           ;                       LCD_PrCString("      ");
 0119 5000              mov A,>L21
 011B 08                push A
 011C 5000              mov A,<L21
 011E 5C                mov X,A
 011F 18                pop A
 0120 7C0000            xcall _LCD_PrCString
 0123                   .dbline 149
 0123           ;                       LCD_Position(0,0);
 0123 5000              mov A,0
 0125 5700              mov X,0
 0127 7C0000            xcall _LCD_Position
 012A 20                pop X
 012B                   .dbline 150
 012B           ;                       LCD_PrString(buffer);
 012B 5A00              mov [__r1],X
 012D 060004            add [__r1],4
 0130 10                push X
 0131 5100              mov A,[__r0]
 0133 08                push A
 0134 5100              mov A,[__r1]
 0136 5C                mov X,A
 0137 18                pop A
 0138 7C0000            xcall _LCD_PrString
 013B 20                pop X
 013C                   .dbline 152
 013C           ;                                               
 013C           ;                       timeT = 0;
 013C 550100            mov [_timeT+1],0
 013F 550000            mov [_timeT],0
 0142                   .dbline 153
 0142           ;               }               
 0142           L19:
 0142                   .dbline 154
 0142           ;       }
 0142           L3:
 0142                   .dbline 52
 0142 8EE8              xjmp L2
 0144           X0:
 0144                   .dbline -2
 0144           L1:
 0144 38F0              add SP,-16
 0146 20                pop X
 0147                   .dbline 0 ; func end
 0147 8FFF              jmp .
 0149                   .dbsym l turn 14 I
 0149                   .dbsym l buffer 4 A[10:10]c
 0149                   .dbsym l ultraData 2 I
 0149                   .dbsym l i 0 I
 0149                   .dbend
 0149                   .dbfunc e TimerInterrupt _TimerInterrupt fV
 0149           _TimerInterrupt::
 0149                   .dbline -1
 0149                   .dbline 160
 0149           ; 
 0149           ; }
 0149           ; 
 0149           ; //Kutsutaan joka 0.01s = 10ms välein.
 0149           ; void TimerInterrupt()
 0149           ; {
 0149                   .dbline 161
 0149           ;   timeT++;
 0149 7601              inc [_timeT+1]
 014B 0E0000            adc [_timeT],0
 014E                   .dbline 162
 014E           ;   timeT2++;
 014E 7603              inc [_timeT2+1]
 0150 0E0200            adc [_timeT2],0
 0153                   .dbline -2
 0153           L22:
 0153                   .dbline 0 ; func end
 0153 7F                ret
 0154                   .dbend
                        .area lit(rom, con, rel, lit)
 0000           L21:
 0000 20202020202000    .byte 32,32,32,32,32,32,0
